(dp0
Vf174d6fc901a875e465542c5c1877938
p1
S'CL'
p2
sVc3001b2c0331ee20159012d5dbd75ec4
p3
S'gakki'
p4
sVb7afd87c649486c0a867be9cd9630b7b
p5
S'chen'
p6
sVdf1c8f071900a29ab26b85d22c224922
p7
S'xidada'
p8
s.